TN:
SF:/mnt/c/Users/maria/IE0417_C31121/laboratorio-testing/src/calculator.cpp
FN:10,10,_Z7is_eveni
FN:3,3,_Z3addii
FN:4,4,_Z8subtractii
FN:5,5,_Z8multiplyii
FN:6,9,_Z6divideii
FNDA:3,_Z7is_eveni
FNDA:15,_Z3addii
FNDA:1,_Z8subtractii
FNDA:1,_Z8multiplyii
FNDA:5,_Z6divideii
FNF:5
FNH:5
DA:3,15
DA:4,1
DA:5,1
DA:6,5
DA:7,5
DA:8,4
DA:10,3
LF:7
LH:7
end_of_record
TN:
SF:/mnt/c/Users/maria/IE0417_C31121/laboratorio-testing/src/grade_utils.cpp
FN:10,17,_Z12letter_gradei
FN:18,18,_Z14is_valid_gradei
FN:3,8,_Z7averageRKSt6vectorIiSaIiEE
FN:9,9,_Z10is_passingi
FNDA:17,_Z12letter_gradei
FNDA:6,_Z14is_valid_gradei
FNDA:2,_Z7averageRKSt6vectorIiSaIiEE
FNDA:2,_Z10is_passingi
FNF:4
FNH:4
DA:3,2
DA:4,2
DA:5,1
DA:6,4
DA:7,1
DA:9,2
DA:10,17
DA:11,17
DA:12,15
DA:13,12
DA:14,9
DA:15,6
DA:16,3
DA:18,6
LF:14
LH:14
end_of_record
TN:
SF:/mnt/c/Users/maria/IE0417_C31121/laboratorio-testing/src/string_utils.cpp
FN:18,25,_Z12count_vowelsRKNSt7__cxx1112basic_stringIcSt11char_traitsIcESaIcEEE
FN:4,8,_Z12to_uppercaseRKNSt7__cxx1112basic_stringIcSt11char_traitsIcESaIcEEE
FN:9,17,_Z13is_palindromeRKNSt7__cxx1112basic_stringIcSt11char_traitsIcESaIcEEE
FNDA:2,_Z12count_vowelsRKNSt7__cxx1112basic_stringIcSt11char_traitsIcESaIcEEE
FNDA:3,_Z12to_uppercaseRKNSt7__cxx1112basic_stringIcSt11char_traitsIcESaIcEEE
FNDA:5,_Z13is_palindromeRKNSt7__cxx1112basic_stringIcSt11char_traitsIcESaIcEEE
FNF:3
FNH:3
DA:4,3
DA:5,3
DA:6,14
DA:7,3
DA:9,5
DA:10,5
DA:11,37
DA:12,32
DA:13,29
DA:14,5
DA:15,5
DA:16,10
DA:17,5
DA:18,2
DA:19,2
DA:20,15
DA:21,13
DA:22,13
DA:24,2
LF:19
LH:19
end_of_record
